target datalayout = "e-m:e-p270:32:32-p271:32:32-p272:64:64-i64:64-i128:128-f80:128-n8:16:32:64-S128"
target triple = "x86_64-pc-linux-gnu"

%struct.H5O_shared_t = type { i32, ptr, i32, %union.anon }
%union.anon = type { %struct.H5O_mesg_loc_t }
%struct.H5O_mesg_loc_t = type { i32, i64 }

; Function Attrs: nounwind uwtable
define i64 @H5O__shared_size(ptr noundef %0, ptr noundef %1) #0 {
  %3 = alloca ptr, align 8
  %4 = alloca ptr, align 8
  %5 = alloca i64, align 8
  store ptr %0, ptr %3, align 8
  store ptr %1, ptr %4, align 8
  store i64 0, ptr %5, align 8
  %6 = load ptr, ptr %4, align 8
  %7 = getelementptr inbounds %struct.H5O_shared_t, ptr %6, i32 0, i32 0
  %8 = load i32, ptr %7, align 8
  %9 = icmp eq i32 %8, 2
  br i1 %9, label %10, label %15

10:                                               ; preds = %2
  %11 = load ptr, ptr %3, align 8
  %12 = call zeroext i8 @H5F_sizeof_addr(ptr noundef %11)
  %13 = zext i8 %12 to i64
  %14 = add i64 2, %13
  store i64 %14, ptr %5, align 8
  br label %16

15:                                               ; preds = %2
  store i64 10, ptr %5, align 8
  br label %16

16:                                               ; preds = %15, %10
  %17 = load i64, ptr %5, align 8
  ret i64 %17
}