; Function Attrs: nounwind uwtable
define range(i64 2, 258) i64 @H5O__shared_size(ptr noundef %0, ptr nocapture noundef readonly %1) local_unnamed_addr #0 {
  %3 = load i32, ptr %1, align 8
  %4 = icmp eq i32 %3, 2
  br i1 %4, label %5, label %9

5:                                                ; preds = %2
  %6 = tail call zeroext i8 @H5F_sizeof_addr(ptr noundef %0) #7
  %7 = zext i8 %6 to i64
  %8 = add nuw nsw i64 %7, 2
  br label %9

9:                                                ; preds = %2, %5
  %.0 = phi i64 [ %8, %5 ], [ 10, %2 ]
  ret i64 %.0
}